target datalayout = "e-m:e-p270:32:32-p271:32:32-p272:64:64-i64:64-i128:128-f80:128-n8:16:32:64-S128"
target triple = "x86_64-pc-linux-gnu"

; Function Attrs: inlinehint nounwind uwtable
define internal i32 @nghttp2_min_int32(i32 noundef %0, i32 noundef %1) #2 {
  %3 = alloca i32, align 4
  %4 = alloca i32, align 4
  store i32 %0, ptr %3, align 4, !tbaa !10
  store i32 %1, ptr %4, align 4, !tbaa !10
  %5 = load i32, ptr %3, align 4, !tbaa !10
  %6 = load i32, ptr %4, align 4, !tbaa !10
  %7 = icmp slt i32 %5, %6
  br i1 %7, label %8, label %10

8:                                                ; preds = %2
  %9 = load i32, ptr %3, align 4, !tbaa !10
  br label %12

10:                                               ; preds = %2
  %11 = load i32, ptr %4, align 4, !tbaa !10
  br label %12

12:                                               ; preds = %10, %8
  %13 = phi i32 [ %9, %8 ], [ %11, %10 ]
  ret i32 %13
}

; Function Attrs: inlinehint nounwind uwtable
define internal i32 @nghttp2_max_int32(i32 noundef %0, i32 noundef %1) #2 {
  %3 = alloca i32, align 4
  %4 = alloca i32, align 4
  store i32 %0, ptr %3, align 4, !tbaa !10
  store i32 %1, ptr %4, align 4, !tbaa !10
  %5 = load i32, ptr %3, align 4, !tbaa !10
  %6 = load i32, ptr %4, align 4, !tbaa !10
  %7 = icmp slt i32 %5, %6
  br i1 %7, label %8, label %10

8:                                                ; preds = %2
  %9 = load i32, ptr %4, align 4, !tbaa !10
  br label %12

10:                                               ; preds = %2
  %11 = load i32, ptr %3, align 4, !tbaa !10
  br label %12

12:                                               ; preds = %10, %8
  %13 = phi i32 [ %9, %8 ], [ %11, %10 ]
  ret i32 %13
}

; Function Attrs: nounwind uwtable
define hidden i32 @nghttp2_adjust_local_window_size(ptr noundef %0, ptr noundef %1, ptr noundef %2, ptr noundef %3) #0 {
  %5 = alloca i32, align 4
  %6 = alloca ptr, align 8
  %7 = alloca ptr, align 8
  %8 = alloca ptr, align 8
  %9 = alloca ptr, align 8
  %10 = alloca i32, align 4
  %11 = alloca i32, align 4
  %12 = alloca i32, align 4
  %13 = alloca i32, align 4
  store ptr %0, ptr %6, align 8, !tbaa !17
  store ptr %1, ptr %7, align 8, !tbaa !17
  store ptr %2, ptr %8, align 8, !tbaa !17
  store ptr %3, ptr %9, align 8, !tbaa !17
  %14 = load ptr, ptr %9, align 8, !tbaa !17
  %15 = load i32, ptr %14, align 4, !tbaa !10
  %16 = icmp sgt i32 %15, 0
  br i1 %16, label %17, label %68

17:                                               ; preds = %4
  call void @llvm.lifetime.start.p0(i64 4, ptr %10) #5
  call void @llvm.lifetime.start.p0(i64 4, ptr %11) #5
  call void @llvm.lifetime.start.p0(i64 4, ptr %12) #5
  %18 = load ptr, ptr %7, align 8, !tbaa !17
  %19 = load i32, ptr %18, align 4, !tbaa !10
  %20 = call i32 @nghttp2_max_int32(i32 noundef 0, i32 noundef %19)
  %21 = load ptr, ptr %9, align 8, !tbaa !17
  %22 = load i32, ptr %21, align 4, !tbaa !10
  %23 = sub nsw i32 %20, %22
  store i32 %23, ptr %12, align 4, !tbaa !10
  %24 = load i32, ptr %12, align 4, !tbaa !10
  %25 = icmp sge i32 %24, 0
  br i1 %25, label %26, label %29

26:                                               ; preds = %17
  %27 = load i32, ptr %12, align 4, !tbaa !10
  %28 = load ptr, ptr %7, align 8, !tbaa !17
  store i32 %27, ptr %28, align 4, !tbaa !10
  store i32 0, ptr %5, align 4
  store i32 1, ptr %13, align 4
  br label %67

29:                                               ; preds = %17
  %30 = load i32, ptr %12, align 4, !tbaa !10
  %31 = sub nsw i32 0, %30
  store i32 %31, ptr %11, align 4, !tbaa !10
  %32 = load ptr, ptr %6, align 8, !tbaa !17
  %33 = load i32, ptr %32, align 4, !tbaa !10
  %34 = load i32, ptr %11, align 4, !tbaa !10
  %35 = sub nsw i32 2147483647, %34
  %36 = icmp sgt i32 %33, %35
  br i1 %36, label %37, label %38

37:                                               ; preds = %29
  store i32 -524, ptr %5, align 4
  store i32 1, ptr %13, align 4
  br label %67

38:                                               ; preds = %29
  %39 = load i32, ptr %11, align 4, !tbaa !10
  %40 = load ptr, ptr %6, align 8, !tbaa !17
  %41 = load i32, ptr %40, align 4, !tbaa !10
  %42 = add nsw i32 %41, %39
  store i32 %42, ptr %40, align 4, !tbaa !10
  %43 = load ptr, ptr %8, align 8, !tbaa !17
  %44 = load i32, ptr %43, align 4, !tbaa !10
  %45 = load i32, ptr %11, align 4, !tbaa !10
  %46 = call i32 @nghttp2_min_int32(i32 noundef %44, i32 noundef %45)
  store i32 %46, ptr %10, align 4, !tbaa !10
  %47 = load i32, ptr %10, align 4, !tbaa !10
  %48 = load ptr, ptr %8, align 8, !tbaa !17
  %49 = load i32, ptr %48, align 4, !tbaa !10
  %50 = sub nsw i32 %49, %47
  store i32 %50, ptr %48, align 4, !tbaa !10
  %51 = load ptr, ptr %7, align 8, !tbaa !17
  %52 = load i32, ptr %51, align 4, !tbaa !10
  %53 = icmp slt i32 %52, 0
  br i1 %53, label %54, label %59

54:                                               ; preds = %38
  %55 = load i32, ptr %10, align 4, !tbaa !10
  %56 = load ptr, ptr %7, align 8, !tbaa !17
  %57 = load i32, ptr %56, align 4, !tbaa !10
  %58 = add nsw i32 %57, %55
  store i32 %58, ptr %56, align 4, !tbaa !10
  br label %62

59:                                               ; preds = %38
  %60 = load i32, ptr %10, align 4, !tbaa !10
  %61 = load ptr, ptr %7, align 8, !tbaa !17
  store i32 %60, ptr %61, align 4, !tbaa !10
  br label %62

62:                                               ; preds = %59, %54
  %63 = load i32, ptr %10, align 4, !tbaa !10
  %64 = load ptr, ptr %9, align 8, !tbaa !17
  %65 = load i32, ptr %64, align 4, !tbaa !10
  %66 = sub nsw i32 %65, %63
  store i32 %66, ptr %64, align 4, !tbaa !10
  store i32 0, ptr %5, align 4
  store i32 1, ptr %13, align 4
  br label %67

67:                                               ; preds = %62, %37, %26
  call void @llvm.lifetime.end.p0(i64 4, ptr %12) #5
  call void @llvm.lifetime.end.p0(i64 4, ptr %11) #5
  call void @llvm.lifetime.end.p0(i64 4, ptr %10) #5
  br label %107

68:                                               ; preds = %4
  %69 = load ptr, ptr %6, align 8, !tbaa !17
  %70 = load i32, ptr %69, align 4, !tbaa !10
  %71 = load ptr, ptr %9, align 8, !tbaa !17
  %72 = load i32, ptr %71, align 4, !tbaa !10
  %73 = add nsw i32 %70, %72
  %74 = icmp slt i32 %73, 0
  br i1 %74, label %89, label %75

75:                                               ; preds = %68
  %76 = load ptr, ptr %7, align 8, !tbaa !17
  %77 = load i32, ptr %76, align 4, !tbaa !10
  %78 = load ptr, ptr %9, align 8, !tbaa !17
  %79 = load i32, ptr %78, align 4, !tbaa !10
  %80 = sub nsw i32 -2147483648, %79
  %81 = icmp slt i32 %77, %80
  br i1 %81, label %89, label %82

82:                                               ; preds = %75
  %83 = load ptr, ptr %8, align 8, !tbaa !17
  %84 = load i32, ptr %83, align 4, !tbaa !10
  %85 = load ptr, ptr %9, align 8, !tbaa !17
  %86 = load i32, ptr %85, align 4, !tbaa !10
  %87 = add nsw i32 2147483647, %86
  %88 = icmp sgt i32 %84, %87
  br i1 %88, label %89, label %90

89:                                               ; preds = %82, %75, %68
  store i32 -524, ptr %5, align 4
  br label %107

90:                                               ; preds = %82
  %91 = load ptr, ptr %9, align 8, !tbaa !17
  %92 = load i32, ptr %91, align 4, !tbaa !10
  %93 = load ptr, ptr %6, align 8, !tbaa !17
  %94 = load i32, ptr %93, align 4, !tbaa !10
  %95 = add nsw i32 %94, %92
  store i32 %95, ptr %93, align 4, !tbaa !10
  %96 = load ptr, ptr %9, align 8, !tbaa !17
  %97 = load i32, ptr %96, align 4, !tbaa !10
  %98 = load ptr, ptr %7, align 8, !tbaa !17
  %99 = load i32, ptr %98, align 4, !tbaa !10
  %100 = add nsw i32 %99, %97
  store i32 %100, ptr %98, align 4, !tbaa !10
  %101 = load ptr, ptr %9, align 8, !tbaa !17
  %102 = load i32, ptr %101, align 4, !tbaa !10
  %103 = load ptr, ptr %8, align 8, !tbaa !17
  %104 = load i32, ptr %103, align 4, !tbaa !10
  %105 = sub nsw i32 %104, %102
  store i32 %105, ptr %103, align 4, !tbaa !10
  %106 = load ptr, ptr %9, align 8, !tbaa !17
  store i32 0, ptr %106, align 4, !tbaa !10
  store i32 0, ptr %5, align 4
  br label %107

107:                                              ; preds = %90, %89, %67
  %108 = load i32, ptr %5, align 4
  ret i32 %108
}