; Function Attrs: mustprogress nofree norecurse nosync nounwind willreturn memory(argmem: readwrite) uwtable
define hidden range(i32 -524, 1) i32 @nghttp2_adjust_local_window_size(ptr noundef captures(none) %0, ptr noundef captures(none) %1, ptr noundef captures(none) %2, ptr noundef captures(none) %3) local_unnamed_addr #4 {
  %5 = load i32, ptr %3, align 4, !tbaa !8
  %6 = icmp sgt i32 %5, 0
  br i1 %6, label %7, label %27

7:                                                ; preds = %4
  %8 = load i32, ptr %1, align 4, !tbaa !8
  %9 = tail call noundef range(i32 0, -2147483648) i32 @llvm.smax.i32(i32 %8, i32 0)
  %10 = sub nsw i32 %9, %5
  %11 = icmp sgt i32 %10, -1
  br i1 %11, label %12, label %13

12:                                               ; preds = %7
  store i32 %10, ptr %1, align 4, !tbaa !8
  br label %46

13:                                               ; preds = %7
  %14 = load i32, ptr %0, align 4, !tbaa !8
  %15 = add nsw i32 %10, 2147483647
  %16 = icmp sgt i32 %14, %15
  br i1 %16, label %46, label %17

17:                                               ; preds = %13
  %18 = sub nsw i32 0, %10
  %19 = sub nsw i32 %14, %10
  store i32 %19, ptr %0, align 4, !tbaa !8
  %20 = load i32, ptr %2, align 4, !tbaa !8
  %21 = tail call noundef i32 @llvm.smin.i32(i32 %20, i32 range(i32 0, -2147483648) %18)
  %22 = sub nsw i32 %20, %21
  store i32 %22, ptr %2, align 4, !tbaa !8
  %23 = load i32, ptr %1, align 4, !tbaa !8
  %24 = tail call i32 @llvm.smin.i32(i32 %23, i32 0)
  %storemerge = add nsw i32 %24, %21
  store i32 %storemerge, ptr %1, align 4, !tbaa !8
  %25 = load i32, ptr %3, align 4, !tbaa !8
  %26 = sub nsw i32 %25, %21
  store i32 %26, ptr %3, align 4, !tbaa !8
  br label %46

27:                                               ; preds = %4
  %28 = load i32, ptr %0, align 4, !tbaa !8
  %29 = add nsw i32 %28, %5
  %30 = icmp slt i32 %29, 0
  br i1 %30, label %46, label %31

31:                                               ; preds = %27
  %32 = load i32, ptr %1, align 4, !tbaa !8
  %33 = sub nsw i32 -2147483648, %5
  %34 = icmp slt i32 %32, %33
  br i1 %34, label %46, label %35

35:                                               ; preds = %31
  %36 = load i32, ptr %2, align 4, !tbaa !8
  %37 = add nsw i32 %5, 2147483647
  %38 = icmp sgt i32 %36, %37
  br i1 %38, label %46, label %39

39:                                               ; preds = %35
  store i32 %29, ptr %0, align 4, !tbaa !8
  %40 = load i32, ptr %3, align 4, !tbaa !8
  %41 = load i32, ptr %1, align 4, !tbaa !8
  %42 = add nsw i32 %41, %40
  store i32 %42, ptr %1, align 4, !tbaa !8
  %43 = load i32, ptr %3, align 4, !tbaa !8
  %44 = load i32, ptr %2, align 4, !tbaa !8
  %45 = sub nsw i32 %44, %43
  store i32 %45, ptr %2, align 4, !tbaa !8
  store i32 0, ptr %3, align 4, !tbaa !8
  br label %46

46:                                               ; preds = %27, %31, %35, %12, %17, %13, %39
  %.1 = phi i32 [ 0, %39 ], [ 0, %12 ], [ 0, %17 ], [ -524, %13 ], [ -524, %35 ], [ -524, %31 ], [ -524, %27 ]
  ret i32 %.1
}